; Function Attrs: nounwind uwtable
define internal range(i32 -1, 1) i32 @hashlib_init_hmactype(ptr noundef %0) #0 {
  %2 = tail call ptr @PyModule_GetState(ptr noundef %0) #9
  %3 = tail call ptr @PyType_FromSpec(ptr noundef nonnull @HMACtype_spec) #9
  %4 = getelementptr inbounds nuw i8, ptr %2, i64 8
  store ptr %3, ptr %4, align 8, !tbaa !45
  %5 = icmp eq ptr %3, null
  br i1 %5, label %8, label %6

6:                                                ; preds = %1
  %7 = tail call i32 @PyModule_AddType(ptr noundef %0, ptr noundef nonnull %3) #9
  %.lobit = ashr i32 %7, 31
  br label %8

8:                                                ; preds = %6, %1
  %.0 = phi i32 [ -1, %1 ], [ %.lobit, %6 ]
  ret i32 %.0
}